
slave.elf:     file format elf32-avr

Sections:
Idx Name          Size      VMA       LMA       File off  Algn
  0 .text         000001b4  00000000  00000000  00000054  2**1
                  CONTENTS, ALLOC, LOAD, READONLY, CODE
  1 .data         00000000  00800060  00800060  00000208  2**0
                  CONTENTS, ALLOC, LOAD, DATA
  2 .comment      00000030  00000000  00000000  00000208  2**0
                  CONTENTS, READONLY
  3 .note.gnu.avr.deviceinfo 0000003c  00000000  00000000  00000238  2**2
                  CONTENTS, READONLY
  4 .debug_aranges 00000088  00000000  00000000  00000274  2**0
                  CONTENTS, READONLY, DEBUGGING
  5 .debug_info   00000909  00000000  00000000  000002fc  2**0
                  CONTENTS, READONLY, DEBUGGING
  6 .debug_abbrev 00000683  00000000  00000000  00000c05  2**0
                  CONTENTS, READONLY, DEBUGGING
  7 .debug_line   00000452  00000000  00000000  00001288  2**0
                  CONTENTS, READONLY, DEBUGGING
  8 .debug_frame  000000bc  00000000  00000000  000016dc  2**2
                  CONTENTS, READONLY, DEBUGGING
  9 .debug_str    000003a5  00000000  00000000  00001798  2**0
                  CONTENTS, READONLY, DEBUGGING
 10 .debug_loc    000002e5  00000000  00000000  00001b3d  2**0
                  CONTENTS, READONLY, DEBUGGING
 11 .debug_ranges 00000058  00000000  00000000  00001e22  2**0
                  CONTENTS, READONLY, DEBUGGING

Disassembly of section .text:

00000000 <__vectors>:
   0:	0c 94 2a 00 	jmp	0x54	; 0x54 <__ctors_end>
   4:	0c 94 34 00 	jmp	0x68	; 0x68 <__bad_interrupt>
   8:	0c 94 34 00 	jmp	0x68	; 0x68 <__bad_interrupt>
   c:	0c 94 34 00 	jmp	0x68	; 0x68 <__bad_interrupt>
  10:	0c 94 34 00 	jmp	0x68	; 0x68 <__bad_interrupt>
  14:	0c 94 34 00 	jmp	0x68	; 0x68 <__bad_interrupt>
  18:	0c 94 34 00 	jmp	0x68	; 0x68 <__bad_interrupt>
  1c:	0c 94 34 00 	jmp	0x68	; 0x68 <__bad_interrupt>
  20:	0c 94 34 00 	jmp	0x68	; 0x68 <__bad_interrupt>
  24:	0c 94 34 00 	jmp	0x68	; 0x68 <__bad_interrupt>
  28:	0c 94 34 00 	jmp	0x68	; 0x68 <__bad_interrupt>
  2c:	0c 94 34 00 	jmp	0x68	; 0x68 <__bad_interrupt>
  30:	0c 94 34 00 	jmp	0x68	; 0x68 <__bad_interrupt>
  34:	0c 94 34 00 	jmp	0x68	; 0x68 <__bad_interrupt>
  38:	0c 94 34 00 	jmp	0x68	; 0x68 <__bad_interrupt>
  3c:	0c 94 34 00 	jmp	0x68	; 0x68 <__bad_interrupt>
  40:	0c 94 34 00 	jmp	0x68	; 0x68 <__bad_interrupt>
  44:	0c 94 34 00 	jmp	0x68	; 0x68 <__bad_interrupt>
  48:	0c 94 34 00 	jmp	0x68	; 0x68 <__bad_interrupt>
  4c:	0c 94 34 00 	jmp	0x68	; 0x68 <__bad_interrupt>
  50:	0c 94 34 00 	jmp	0x68	; 0x68 <__bad_interrupt>

00000054 <__ctors_end>:
  54:	11 24       	eor	r1, r1
  56:	1f be       	out	0x3f, r1	; 63
  58:	cf e5       	ldi	r28, 0x5F	; 95
  5a:	d8 e0       	ldi	r29, 0x08	; 8
  5c:	de bf       	out	0x3e, r29	; 62
  5e:	cd bf       	out	0x3d, r28	; 61
  60:	0e 94 ac 00 	call	0x158	; 0x158 <main>
  64:	0c 94 d8 00 	jmp	0x1b0	; 0x1b0 <_exit>

00000068 <__bad_interrupt>:
  68:	0c 94 00 00 	jmp	0	; 0x0 <__vectors>

0000006c <Dio_SetPinDirection>:
#include "Dio_Reg.h"
#include "Utilites.h"

void Dio_SetPinDirection(u8 GroupNo, u8 PinNo, u8 Direction)
{
	if((GroupNo<=GroupD) && (PinNo<=PIN7))
  6c:	84 30       	cpi	r24, 0x04	; 4
  6e:	08 f0       	brcs	.+2      	; 0x72 <Dio_SetPinDirection+0x6>
  70:	72 c0       	rjmp	.+228    	; 0x156 <Dio_SetPinDirection+0xea>
  72:	68 30       	cpi	r22, 0x08	; 8
  74:	08 f0       	brcs	.+2      	; 0x78 <Dio_SetPinDirection+0xc>
  76:	6f c0       	rjmp	.+222    	; 0x156 <Dio_SetPinDirection+0xea>
	{
		if(Direction==OUTPUT)
  78:	41 30       	cpi	r20, 0x01	; 1
  7a:	a1 f5       	brne	.+104    	; 0xe4 <Dio_SetPinDirection+0x78>
		{
			switch(GroupNo)
  7c:	81 30       	cpi	r24, 0x01	; 1
  7e:	89 f0       	breq	.+34     	; 0xa2 <Dio_SetPinDirection+0x36>
  80:	28 f0       	brcs	.+10     	; 0x8c <Dio_SetPinDirection+0x20>
  82:	82 30       	cpi	r24, 0x02	; 2
  84:	c9 f0       	breq	.+50     	; 0xb8 <Dio_SetPinDirection+0x4c>
  86:	83 30       	cpi	r24, 0x03	; 3
  88:	11 f1       	breq	.+68     	; 0xce <Dio_SetPinDirection+0x62>
  8a:	08 95       	ret
			{
			case GroupA: SET_BIT(DDRA, PinNo); break;
  8c:	2a b3       	in	r18, 0x1a	; 26
  8e:	81 e0       	ldi	r24, 0x01	; 1
  90:	90 e0       	ldi	r25, 0x00	; 0
  92:	02 c0       	rjmp	.+4      	; 0x98 <Dio_SetPinDirection+0x2c>
  94:	88 0f       	add	r24, r24
  96:	99 1f       	adc	r25, r25
  98:	6a 95       	dec	r22
  9a:	e2 f7       	brpl	.-8      	; 0x94 <Dio_SetPinDirection+0x28>
  9c:	82 2b       	or	r24, r18
  9e:	8a bb       	out	0x1a, r24	; 26
  a0:	08 95       	ret
			case GroupB: SET_BIT(DDRB, PinNo); break;
  a2:	27 b3       	in	r18, 0x17	; 23
  a4:	81 e0       	ldi	r24, 0x01	; 1
  a6:	90 e0       	ldi	r25, 0x00	; 0
  a8:	02 c0       	rjmp	.+4      	; 0xae <Dio_SetPinDirection+0x42>
  aa:	88 0f       	add	r24, r24
  ac:	99 1f       	adc	r25, r25
  ae:	6a 95       	dec	r22
  b0:	e2 f7       	brpl	.-8      	; 0xaa <Dio_SetPinDirection+0x3e>
  b2:	82 2b       	or	r24, r18
  b4:	87 bb       	out	0x17, r24	; 23
  b6:	08 95       	ret
			case GroupC: SET_BIT(DDRC, PinNo); break;
  b8:	24 b3       	in	r18, 0x14	; 20
  ba:	81 e0       	ldi	r24, 0x01	; 1
  bc:	90 e0       	ldi	r25, 0x00	; 0
  be:	02 c0       	rjmp	.+4      	; 0xc4 <Dio_SetPinDirection+0x58>
  c0:	88 0f       	add	r24, r24
  c2:	99 1f       	adc	r25, r25
  c4:	6a 95       	dec	r22
  c6:	e2 f7       	brpl	.-8      	; 0xc0 <Dio_SetPinDirection+0x54>
  c8:	82 2b       	or	r24, r18
  ca:	84 bb       	out	0x14, r24	; 20
  cc:	08 95       	ret
			case GroupD: SET_BIT(DDRD, PinNo); break;
  ce:	21 b3       	in	r18, 0x11	; 17
  d0:	81 e0       	ldi	r24, 0x01	; 1
  d2:	90 e0       	ldi	r25, 0x00	; 0
  d4:	02 c0       	rjmp	.+4      	; 0xda <Dio_SetPinDirection+0x6e>
  d6:	88 0f       	add	r24, r24
  d8:	99 1f       	adc	r25, r25
  da:	6a 95       	dec	r22
  dc:	e2 f7       	brpl	.-8      	; 0xd6 <Dio_SetPinDirection+0x6a>
  de:	82 2b       	or	r24, r18
  e0:	81 bb       	out	0x11, r24	; 17
  e2:	08 95       	ret
			}
		}
		else if(Direction==INPUT)
  e4:	41 11       	cpse	r20, r1
  e6:	37 c0       	rjmp	.+110    	; 0x156 <Dio_SetPinDirection+0xea>
		{
			switch(GroupNo)
  e8:	81 30       	cpi	r24, 0x01	; 1
  ea:	91 f0       	breq	.+36     	; 0x110 <Dio_SetPinDirection+0xa4>
  ec:	28 f0       	brcs	.+10     	; 0xf8 <Dio_SetPinDirection+0x8c>
  ee:	82 30       	cpi	r24, 0x02	; 2
  f0:	d9 f0       	breq	.+54     	; 0x128 <Dio_SetPinDirection+0xbc>
  f2:	83 30       	cpi	r24, 0x03	; 3
  f4:	29 f1       	breq	.+74     	; 0x140 <Dio_SetPinDirection+0xd4>
  f6:	08 95       	ret
			{
			case GroupA: CLR_BIT(DDRA, PinNo); break;
  f8:	2a b3       	in	r18, 0x1a	; 26
  fa:	81 e0       	ldi	r24, 0x01	; 1
  fc:	90 e0       	ldi	r25, 0x00	; 0
  fe:	02 c0       	rjmp	.+4      	; 0x104 <Dio_SetPinDirection+0x98>
 100:	88 0f       	add	r24, r24
 102:	99 1f       	adc	r25, r25
 104:	6a 95       	dec	r22
 106:	e2 f7       	brpl	.-8      	; 0x100 <Dio_SetPinDirection+0x94>
 108:	80 95       	com	r24
 10a:	82 23       	and	r24, r18
 10c:	8a bb       	out	0x1a, r24	; 26
 10e:	08 95       	ret
			case GroupB: CLR_BIT(DDRB, PinNo); break;
 110:	27 b3       	in	r18, 0x17	; 23
 112:	81 e0       	ldi	r24, 0x01	; 1
 114:	90 e0       	ldi	r25, 0x00	; 0
 116:	02 c0       	rjmp	.+4      	; 0x11c <Dio_SetPinDirection+0xb0>
 118:	88 0f       	add	r24, r24
 11a:	99 1f       	adc	r25, r25
 11c:	6a 95       	dec	r22
 11e:	e2 f7       	brpl	.-8      	; 0x118 <Dio_SetPinDirection+0xac>
 120:	80 95       	com	r24
 122:	82 23       	and	r24, r18
 124:	87 bb       	out	0x17, r24	; 23
 126:	08 95       	ret
			case GroupC: CLR_BIT(DDRC, PinNo); break;
 128:	24 b3       	in	r18, 0x14	; 20
 12a:	81 e0       	ldi	r24, 0x01	; 1
 12c:	90 e0       	ldi	r25, 0x00	; 0
 12e:	02 c0       	rjmp	.+4      	; 0x134 <Dio_SetPinDirection+0xc8>
 130:	88 0f       	add	r24, r24
 132:	99 1f       	adc	r25, r25
 134:	6a 95       	dec	r22
 136:	e2 f7       	brpl	.-8      	; 0x130 <Dio_SetPinDirection+0xc4>
 138:	80 95       	com	r24
 13a:	82 23       	and	r24, r18
 13c:	84 bb       	out	0x14, r24	; 20
 13e:	08 95       	ret
			case GroupD: CLR_BIT(DDRD, PinNo); break;
 140:	21 b3       	in	r18, 0x11	; 17
 142:	81 e0       	ldi	r24, 0x01	; 1
 144:	90 e0       	ldi	r25, 0x00	; 0
 146:	02 c0       	rjmp	.+4      	; 0x14c <Dio_SetPinDirection+0xe0>
 148:	88 0f       	add	r24, r24
 14a:	99 1f       	adc	r25, r25
 14c:	6a 95       	dec	r22
 14e:	e2 f7       	brpl	.-8      	; 0x148 <Dio_SetPinDirection+0xdc>
 150:	80 95       	com	r24
 152:	82 23       	and	r24, r18
 154:	81 bb       	out	0x11, r24	; 17
 156:	08 95       	ret

00000158 <main>:
#include "SPI_Int.h"



int main(void)
{   Dio_SetPinDirection(GroupC,PIN0,OUTPUT);
 158:	41 e0       	ldi	r20, 0x01	; 1
 15a:	60 e0       	ldi	r22, 0x00	; 0
 15c:	82 e0       	ldi	r24, 0x02	; 2
 15e:	0e 94 36 00 	call	0x6c	; 0x6c <Dio_SetPinDirection>
    SPI_initSlave();
 162:	0e 94 bc 00 	call	0x178	; 0x178 <SPI_initSlave>
	u8 recieved_data ;
    while (1) 
    {
		recieved_data =SPI_recieveByte();
 166:	0e 94 d4 00 	call	0x1a8	; 0x1a8 <SPI_recieveByte>
		if(recieved_data=='R'){
 16a:	82 35       	cpi	r24, 0x52	; 82
 16c:	e1 f7       	brne	.-8      	; 0x166 <main+0xe>
			TOG_BIT(PORTC,PIN0);
 16e:	95 b3       	in	r25, 0x15	; 21
 170:	81 e0       	ldi	r24, 0x01	; 1
 172:	89 27       	eor	r24, r25
 174:	85 bb       	out	0x15, r24	; 21
 176:	f7 cf       	rjmp	.-18     	; 0x166 <main+0xe>

00000178 <SPI_initSlave>:
}
void SPI_sendByte(u8 data)
{
	SPDR = data; //send data by SPI
	while(GET_BIT(SPSR, 7)==0); //wait until SPI interrupt flag=1 (data is sent correctly)
}
 178:	40 e0       	ldi	r20, 0x00	; 0
 17a:	64 e0       	ldi	r22, 0x04	; 4
 17c:	81 e0       	ldi	r24, 0x01	; 1
 17e:	0e 94 36 00 	call	0x6c	; 0x6c <Dio_SetPinDirection>
 182:	40 e0       	ldi	r20, 0x00	; 0
 184:	65 e0       	ldi	r22, 0x05	; 5
 186:	81 e0       	ldi	r24, 0x01	; 1
 188:	0e 94 36 00 	call	0x6c	; 0x6c <Dio_SetPinDirection>
 18c:	41 e0       	ldi	r20, 0x01	; 1
 18e:	66 e0       	ldi	r22, 0x06	; 6
 190:	81 e0       	ldi	r24, 0x01	; 1
 192:	0e 94 36 00 	call	0x6c	; 0x6c <Dio_SetPinDirection>
 196:	40 e0       	ldi	r20, 0x00	; 0
 198:	67 e0       	ldi	r22, 0x07	; 7
 19a:	81 e0       	ldi	r24, 0x01	; 1
 19c:	0e 94 36 00 	call	0x6c	; 0x6c <Dio_SetPinDirection>
 1a0:	8d b1       	in	r24, 0x0d	; 13
 1a2:	80 64       	ori	r24, 0x40	; 64
 1a4:	8d b9       	out	0x0d, r24	; 13
 1a6:	08 95       	ret

000001a8 <SPI_recieveByte>:
u8 SPI_recieveByte(void)
{
	while(GET_BIT(SPSR, 7)==0); //wait until SPI interrupt flag=1(data is receive correctly)
 1a8:	77 9b       	sbis	0x0e, 7	; 14
 1aa:	fe cf       	rjmp	.-4      	; 0x1a8 <SPI_recieveByte>
	return SPDR; //return the received byte from SPI data register
 1ac:	8f b1       	in	r24, 0x0f	; 15
}
 1ae:	08 95       	ret

000001b0 <_exit>:
 1b0:	f8 94       	cli

000001b2 <__stop_program>:
 1b2:	ff cf       	rjmp	.-2      	; 0x1b2 <__stop_program>
